target datalayout = "e-m:e-p270:32:32-p271:32:32-p272:64:64-i64:64-i128:128-f80:128-n8:16:32:64-S128"
target triple = "x86_64-pc-linux-gnu"

%struct.WaveFile = type { %struct.WaveChunk, %struct.WaveFormat, %struct.WaveFact, i64, ptr, i32, i32, i32 }
%struct.WaveChunk = type { i32, i32, i64, ptr, i64 }
%struct.WaveFormat = type { i16, i16, i16, i32, i32, i16, i16, i16, i16, i32, i32, [16 x i8] }
%struct.WaveFact = type { i32, i32 }

@.str.53 = private unnamed_addr constant [28 x i8] c"Unsupported block alignment\00", align 1
@.str.54 = private unnamed_addr constant [34 x i8] c"Truncated data chunk in WAVE file\00", align 1
@.str.55 = private unnamed_addr constant [62 x i8] c"Invalid number of sample frames in WAVE fact chunk (too many)\00", align 1
@.str.56 = private unnamed_addr constant [40 x i8] c"Invalid companded bits per sample of %u\00", align 1

; Function Attrs: nounwind uwtable
define internal i64 @WaveAdjustToFactValue(ptr noundef %0, i64 noundef %1) #0 {
  %3 = alloca i64, align 8
  %4 = alloca ptr, align 8
  %5 = alloca i64, align 8
  store ptr %0, ptr %4, align 8
  store i64 %1, ptr %5, align 8
  %6 = load ptr, ptr %4, align 8
  %7 = getelementptr inbounds nuw %struct.WaveFile, ptr %6, i32 0, i32 2
  %8 = getelementptr inbounds nuw %struct.WaveFact, ptr %7, i32 0, i32 0
  %9 = load i32, ptr %8, align 8
  %10 = icmp eq i32 %9, 2
  br i1 %10, label %11, label %42

11:                                               ; preds = %2
  %12 = load ptr, ptr %4, align 8
  %13 = getelementptr inbounds nuw %struct.WaveFile, ptr %12, i32 0, i32 7
  %14 = load i32, ptr %13, align 8
  %15 = icmp eq i32 %14, 2
  br i1 %15, label %16, label %26

16:                                               ; preds = %11
  %17 = load i64, ptr %5, align 8
  %18 = load ptr, ptr %4, align 8
  %19 = getelementptr inbounds nuw %struct.WaveFile, ptr %18, i32 0, i32 2
  %20 = getelementptr inbounds nuw %struct.WaveFact, ptr %19, i32 0, i32 1
  %21 = load i32, ptr %20, align 4
  %22 = zext i32 %21 to i64
  %23 = icmp slt i64 %17, %22
  br i1 %23, label %24, label %26

24:                                               ; preds = %16
  %25 = call zeroext i1 (ptr, ...) @SDL_SetError_REAL(ptr noundef @.str.55)
  store i64 -1, ptr %3, align 8
  br label %44

26:                                               ; preds = %16, %11
  %27 = load i64, ptr %5, align 8
  %28 = load ptr, ptr %4, align 8
  %29 = getelementptr inbounds nuw %struct.WaveFile, ptr %28, i32 0, i32 2
  %30 = getelementptr inbounds nuw %struct.WaveFact, ptr %29, i32 0, i32 1
  %31 = load i32, ptr %30, align 4
  %32 = zext i32 %31 to i64
  %33 = icmp sgt i64 %27, %32
  br i1 %33, label %34, label %40

34:                                               ; preds = %26
  %35 = load ptr, ptr %4, align 8
  %36 = getelementptr inbounds nuw %struct.WaveFile, ptr %35, i32 0, i32 2
  %37 = getelementptr inbounds nuw %struct.WaveFact, ptr %36, i32 0, i32 1
  %38 = load i32, ptr %37, align 4
  %39 = zext i32 %38 to i64
  store i64 %39, ptr %3, align 8
  br label %44

40:                                               ; preds = %26
  br label %41

41:                                               ; preds = %40
  br label %42

42:                                               ; preds = %41, %2
  %43 = load i64, ptr %5, align 8
  store i64 %43, ptr %3, align 8
  br label %44

44:                                               ; preds = %42, %34, %24
  %45 = load i64, ptr %3, align 8
  ret i64 %45
}

; Function Attrs: nounwind uwtable
define internal zeroext i1 @LAW_Init(ptr noundef %0, i64 noundef %1) #0 {
  %3 = alloca i1, align 1
  %4 = alloca ptr, align 8
  %5 = alloca i64, align 8
  %6 = alloca ptr, align 8
  %7 = alloca i32, align 4
  store ptr %0, ptr %4, align 8
  store i64 %1, ptr %5, align 8
  call void @llvm.lifetime.start.p0(i64 8, ptr %6) #7
  %8 = load ptr, ptr %4, align 8
  %9 = getelementptr inbounds nuw %struct.WaveFile, ptr %8, i32 0, i32 1
  store ptr %9, ptr %6, align 8
  %10 = load ptr, ptr %6, align 8
  %11 = getelementptr inbounds nuw %struct.WaveFormat, ptr %10, i32 0, i32 6
  %12 = load i16, ptr %11, align 2
  %13 = zext i16 %12 to i32
  %14 = icmp ne i32 %13, 8
  br i1 %14, label %15, label %21

15:                                               ; preds = %2
  %16 = load ptr, ptr %6, align 8
  %17 = getelementptr inbounds nuw %struct.WaveFormat, ptr %16, i32 0, i32 6
  %18 = load i16, ptr %17, align 2
  %19 = zext i16 %18 to i32
  %20 = call zeroext i1 (ptr, ...) @SDL_SetError_REAL(ptr noundef @.str.56, i32 noundef %19)
  store i1 %20, ptr %3, align 1
  store i32 1, ptr %7, align 4
  br label %77

21:                                               ; preds = %2
  %22 = load ptr, ptr %6, align 8
  %23 = getelementptr inbounds nuw %struct.WaveFormat, ptr %22, i32 0, i32 5
  %24 = load i16, ptr %23, align 4
  %25 = zext i16 %24 to i32
  %26 = load ptr, ptr %6, align 8
  %27 = getelementptr inbounds nuw %struct.WaveFormat, ptr %26, i32 0, i32 2
  %28 = load i16, ptr %27, align 4
  %29 = zext i16 %28 to i32
  %30 = icmp ne i32 %25, %29
  br i1 %30, label %31, label %33

31:                                               ; preds = %21
  %32 = call zeroext i1 (ptr, ...) @SDL_SetError_REAL(ptr noundef @.str.53)
  store i1 %32, ptr %3, align 1
  store i32 1, ptr %7, align 4
  br label %77

33:                                               ; preds = %21
  %34 = load ptr, ptr %4, align 8
  %35 = getelementptr inbounds nuw %struct.WaveFile, ptr %34, i32 0, i32 6
  %36 = load i32, ptr %35, align 4
  %37 = icmp eq i32 %36, 1
  br i1 %37, label %43, label %38

38:                                               ; preds = %33
  %39 = load ptr, ptr %4, align 8
  %40 = getelementptr inbounds nuw %struct.WaveFile, ptr %39, i32 0, i32 6
  %41 = load i32, ptr %40, align 4
  %42 = icmp eq i32 %41, 2
  br i1 %42, label %43, label %60

43:                                               ; preds = %38, %33
  %44 = load ptr, ptr %6, align 8
  %45 = getelementptr inbounds nuw %struct.WaveFormat, ptr %44, i32 0, i32 5
  %46 = load i16, ptr %45, align 4
  %47 = zext i16 %46 to i32
  %48 = icmp sgt i32 %47, 1
  br i1 %48, label %49, label %59

49:                                               ; preds = %43
  %50 = load i64, ptr %5, align 8
  %51 = load ptr, ptr %6, align 8
  %52 = getelementptr inbounds nuw %struct.WaveFormat, ptr %51, i32 0, i32 5
  %53 = load i16, ptr %52, align 4
  %54 = zext i16 %53 to i64
  %55 = urem i64 %50, %54
  %56 = icmp ne i64 %55, 0
  br i1 %56, label %57, label %59

57:                                               ; preds = %49
  %58 = call zeroext i1 (ptr, ...) @SDL_SetError_REAL(ptr noundef @.str.54)
  store i1 %58, ptr %3, align 1
  store i32 1, ptr %7, align 4
  br label %77

59:                                               ; preds = %49, %43
  br label %60

60:                                               ; preds = %59, %38
  %61 = load ptr, ptr %4, align 8
  %62 = load i64, ptr %5, align 8
  %63 = load ptr, ptr %6, align 8
  %64 = getelementptr inbounds nuw %struct.WaveFormat, ptr %63, i32 0, i32 5
  %65 = load i16, ptr %64, align 4
  %66 = zext i16 %65 to i64
  %67 = udiv i64 %62, %66
  %68 = call i64 @WaveAdjustToFactValue(ptr noundef %61, i64 noundef %67)
  %69 = load ptr, ptr %4, align 8
  %70 = getelementptr inbounds nuw %struct.WaveFile, ptr %69, i32 0, i32 3
  store i64 %68, ptr %70, align 8
  %71 = load ptr, ptr %4, align 8
  %72 = getelementptr inbounds nuw %struct.WaveFile, ptr %71, i32 0, i32 3
  %73 = load i64, ptr %72, align 8
  %74 = icmp slt i64 %73, 0
  br i1 %74, label %75, label %76

75:                                               ; preds = %60
  store i1 false, ptr %3, align 1
  store i32 1, ptr %7, align 4
  br label %77

76:                                               ; preds = %60
  store i1 true, ptr %3, align 1
  store i32 1, ptr %7, align 4
  br label %77

77:                                               ; preds = %76, %75, %57, %31, %15
  call void @llvm.lifetime.end.p0(i64 8, ptr %6) #7
  %78 = load i1, ptr %3, align 1
  ret i1 %78
}