; Function Attrs: nounwind uwtable
define internal fastcc zeroext i1 @LAW_Init(ptr noundef nonnull captures(none) %0, i64 noundef range(i64 0, 4294967296) %1) unnamed_addr #0 {
  %3 = getelementptr inbounds nuw i8, ptr %0, i64 50
  %4 = load i16, ptr %3, align 2
  %.not = icmp eq i16 %4, 8
  br i1 %.not, label %8, label %5

5:                                                ; preds = %2
  %6 = zext i16 %4 to i32
  %7 = tail call zeroext i1 (ptr, ...) @SDL_SetError_REAL(ptr noundef nonnull @.str.56, i32 noundef %6) #8
  br label %40

8:                                                ; preds = %2
  %9 = getelementptr inbounds nuw i8, ptr %0, i64 48
  %10 = load i16, ptr %9, align 4
  %11 = getelementptr inbounds nuw i8, ptr %0, i64 36
  %12 = load i16, ptr %11, align 4
  %.not17 = icmp eq i16 %10, %12
  br i1 %.not17, label %15, label %13

13:                                               ; preds = %8
  %14 = tail call zeroext i1 (ptr, ...) @SDL_SetError_REAL(ptr noundef nonnull @.str.53) #8
  br label %40

15:                                               ; preds = %8
  %16 = getelementptr inbounds nuw i8, ptr %0, i64 108
  %17 = load i32, ptr %16, align 4
  %.off = add i32 %17, -1
  %switch = icmp ult i32 %.off, 2
  %18 = icmp ugt i16 %10, 1
  %or.cond = and i1 %18, %switch
  %.lhs.trunc = trunc nuw i64 %1 to i32
  %.rhs.trunc = zext i16 %10 to i32
  br i1 %or.cond, label %19, label %._crit_edge

19:                                               ; preds = %15
  %20 = urem i32 %.lhs.trunc, %.rhs.trunc
  %.not18 = icmp eq i32 %20, 0
  br i1 %.not18, label %._crit_edge, label %21

21:                                               ; preds = %19
  %22 = tail call zeroext i1 (ptr, ...) @SDL_SetError_REAL(ptr noundef nonnull @.str.54) #8
  br label %40

._crit_edge:                                      ; preds = %15, %19
  %23 = udiv i32 %.lhs.trunc, %.rhs.trunc
  %24 = getelementptr inbounds nuw i8, ptr %0, i64 80
  %25 = load i32, ptr %24, align 8
  %26 = icmp eq i32 %25, 2
  br i1 %26, label %27, label %35

27:                                               ; preds = %._crit_edge
  %28 = getelementptr inbounds nuw i8, ptr %0, i64 112
  %29 = load i32, ptr %28, align 8
  %30 = icmp eq i32 %29, 2
  %31 = getelementptr inbounds nuw i8, ptr %0, i64 84
  %32 = load i32, ptr %31, align 4
  %33 = icmp ult i32 %23, %32
  %or.cond.i = select i1 %30, i1 %33, i1 false
  br i1 %or.cond.i, label %37, label %._crit_edge.i

._crit_edge.i:                                    ; preds = %27
  %34 = icmp ugt i32 %23, %32
  br i1 %34, label %WaveAdjustToFactValue.exit.thread, label %35

35:                                               ; preds = %._crit_edge.i, %._crit_edge
  br label %WaveAdjustToFactValue.exit.thread

WaveAdjustToFactValue.exit.thread:                ; preds = %35, %._crit_edge.i
  %.0.i.ph.in = phi i32 [ %32, %._crit_edge.i ], [ %23, %35 ]
  %.0.i.ph = zext i32 %.0.i.ph.in to i64
  %36 = getelementptr inbounds nuw i8, ptr %0, i64 88
  store i64 %.0.i.ph, ptr %36, align 8
  br label %40

37:                                               ; preds = %27
  %38 = tail call zeroext i1 (ptr, ...) @SDL_SetError_REAL(ptr noundef nonnull @.str.55) #8
  %39 = getelementptr inbounds nuw i8, ptr %0, i64 88
  store i64 -1, ptr %39, align 8
  br label %40

40:                                               ; preds = %37, %WaveAdjustToFactValue.exit.thread, %21, %13, %5
  %.0 = phi i1 [ %7, %5 ], [ %14, %13 ], [ %22, %21 ], [ false, %37 ], [ true, %WaveAdjustToFactValue.exit.thread ]
  ret i1 %.0
}